; Function Attrs: mustprogress nounwind uwtable
define dso_local { i64, i8 } @_ZN4llvm32MachineOptimizationRemarkEmitter14computeHotnessERKNS_17MachineBasicBlockE(ptr nocapture noundef nonnull readonly align 8 dereferenceable(16) %0, ptr noundef nonnull align 8 dereferenceable(288) %1) local_unnamed_addr #0 align 2 {
  %3 = getelementptr inbounds nuw i8, ptr %0, i64 8
  %4 = load ptr, ptr %3, align 8
  %.not = icmp eq ptr %4, null
  br i1 %.not, label %9, label %5

5:                                                ; preds = %2
  %6 = tail call { i64, i8 } @_ZNK4llvm25MachineBlockFrequencyInfo20getBlockProfileCountEPKNS_17MachineBasicBlockE(ptr noundef nonnull align 8 dereferenceable(8) %4, ptr noundef nonnull %1) #11
  %7 = extractvalue { i64, i8 } %6, 0
  %8 = extractvalue { i64, i8 } %6, 1
  br label %9

9:                                                ; preds = %2, %5
  %.sroa.2.0 = phi i8 [ %8, %5 ], [ 0, %2 ]
  %.sroa.0.0 = phi i64 [ %7, %5 ], [ undef, %2 ]
  %.fca.0.insert = insertvalue { i64, i8 } poison, i64 %.sroa.0.0, 0
  %.fca.1.insert = insertvalue { i64, i8 } %.fca.0.insert, i8 %.sroa.2.0, 1
  ret { i64, i8 } %.fca.1.insert
}